	.file	"function.c"
	.text
	.globl	nCompletionStatus
	.section	.bss
	.align 4
	.type	nCompletionStatus, @object
	.size	nCompletionStatus, 4
nCompletionStatus:
	.zero	4
	.text
	.globl	add
	.type	add, @function
add:
.LFB0:
	.cfi_startproc
	pushq	%rbp
	.cfi_def_cfa_offset 16
	.cfi_offset 6, -16
	movq	%rsp, %rbp
	.cfi_def_cfa_register 6
	movss	%xmm0, -20(%rbp)
	movss	%xmm1, -24(%rbp)
	movss	-20(%rbp), %xmm0
	addss	-24(%rbp), %xmm0
	movss	%xmm0, -4(%rbp)
	movss	-4(%rbp), %xmm0
	popq	%rbp
	.cfi_def_cfa 7, 8
	ret
	.cfi_endproc
.LFE0:
	.size	add, .-add
	.globl	add_and_multiply
	.type	add_and_multiply, @function
add_and_multiply:
.LFB1:
	.cfi_startproc
	pushq	%rbp
	.cfi_def_cfa_offset 16
	.cfi_offset 6, -16
	movq	%rsp, %rbp
	.cfi_def_cfa_register 6
	subq	$24, %rsp
	movss	%xmm0, -20(%rbp)
	movss	%xmm1, -24(%rbp)
	movss	-24(%rbp), %xmm0
	movl	-20(%rbp), %eax
	movaps	%xmm0, %xmm1
	movd	%eax, %xmm0
	call	add
	movd	%xmm0, %eax
	movl	%eax, -4(%rbp)
	movss	-4(%rbp), %xmm1
	movss	.LC0(%rip), %xmm0
	mulss	%xmm1, %xmm0
	movss	%xmm0, -4(%rbp)
	movss	-4(%rbp), %xmm0
	leave
	.cfi_def_cfa 7, 8
	ret
	.cfi_endproc
.LFE1:
	.size	add_and_multiply, .-add_and_multiply
	.section	.rodata
	.align 4
.LC0:
	.long	1077936128
	.ident	"GCC: (GNU) 13.2.0"
